target datalayout = "e-m:e-p270:32:32-p271:32:32-p272:64:64-i64:64-i128:128-f80:128-n8:16:32:64-S128"
target triple = "x86_64-pc-linux-gnu"

%struct.pmix_lock_t = type { i32, %struct.pmix_mutex_t, %union.pthread_cond_t, i8 }
%struct.pmix_mutex_t = type { %struct.pmix_object_t, %union.pthread_mutex_t }
%struct.pmix_object_t = type { %union.pthread_mutex_t, ptr, i32, %struct.pmix_tma }
%struct.pmix_tma = type { ptr, ptr, ptr, ptr, ptr, ptr, ptr, ptr }
%union.pthread_mutex_t = type { %struct.__pthread_mutex_s }
%struct.__pthread_mutex_s = type { i32, i32, i32, i32, i32, i16, i16, %struct.__pthread_internal_list }
%struct.__pthread_internal_list = type { ptr, ptr }
%union.pthread_cond_t = type { %struct.__pthread_cond_s }
%struct.__pthread_cond_s = type { %union.__atomic_wide_counter, %union.__atomic_wide_counter, [2 x i32], [2 x i32], i32, i32, [2 x i32] }
%union.__atomic_wide_counter = type { i64 }
%struct.pmix_group_tracker_t = type { %struct.pmix_object_t, %struct.pmix_lock_t, i32, i64, i64, ptr, ptr, i64, ptr, i64, ptr, i64, ptr, ptr, ptr }

; Function Attrs: inlinehint nounwind uwtable
define internal void @pmix_mutex_unlock(ptr noundef %0) #2 {
  %2 = alloca ptr, align 8
  store ptr %0, ptr %2, align 8, !tbaa !96
  %3 = load ptr, ptr %2, align 8, !tbaa !96
  %4 = getelementptr inbounds nuw %struct.pmix_mutex_t, ptr %3, i32 0, i32 1
  %5 = call i32 @pthread_mutex_unlock(ptr noundef %4) #11
  ret void
}

; Function Attrs: inlinehint nounwind uwtable
define internal void @pmix_mutex_lock(ptr noundef %0) #2 {
  %2 = alloca ptr, align 8
  store ptr %0, ptr %2, align 8, !tbaa !96
  %3 = load ptr, ptr %2, align 8, !tbaa !96
  %4 = getelementptr inbounds nuw %struct.pmix_mutex_t, ptr %3, i32 0, i32 1
  %5 = call i32 @pthread_mutex_lock(ptr noundef %4) #11
  ret void
}

; Function Attrs: inlinehint nounwind uwtable
define internal void @pmix_atomic_wmb() #2 {
  fence release
  ret void
}

; Function Attrs: nounwind uwtable
define internal void @op_cbfunc(i32 noundef %0, ptr noundef %1) #0 {
  %3 = alloca i32, align 4
  %4 = alloca ptr, align 8
  %5 = alloca ptr, align 8
  store i32 %0, ptr %3, align 4, !tbaa !7
  store ptr %1, ptr %4, align 8, !tbaa !3
  call void @llvm.lifetime.start.p0(i64 8, ptr %5) #11
  %6 = load ptr, ptr %4, align 8, !tbaa !3
  store ptr %6, ptr %5, align 8, !tbaa !3
  %7 = load i32, ptr %3, align 4, !tbaa !7
  %8 = load ptr, ptr %5, align 8, !tbaa !3
  %9 = getelementptr inbounds nuw %struct.pmix_group_tracker_t, ptr %8, i32 0, i32 2
  store i32 %7, ptr %9, align 8, !tbaa !25
  %10 = load ptr, ptr %5, align 8, !tbaa !3
  %11 = getelementptr inbounds nuw %struct.pmix_group_tracker_t, ptr %10, i32 0, i32 13
  %12 = load ptr, ptr %11, align 8, !tbaa !35
  %13 = icmp ne ptr null, %12
  br i1 %13, label %14, label %28

14:                                               ; preds = %2
  %15 = load ptr, ptr %5, align 8, !tbaa !3
  %16 = getelementptr inbounds nuw %struct.pmix_group_tracker_t, ptr %15, i32 0, i32 13
  %17 = load ptr, ptr %16, align 8, !tbaa !35
  %18 = load i32, ptr %3, align 4, !tbaa !7
  %19 = load ptr, ptr %5, align 8, !tbaa !3
  %20 = getelementptr inbounds nuw %struct.pmix_group_tracker_t, ptr %19, i32 0, i32 8
  %21 = load ptr, ptr %20, align 8, !tbaa !31
  %22 = load ptr, ptr %5, align 8, !tbaa !3
  %23 = getelementptr inbounds nuw %struct.pmix_group_tracker_t, ptr %22, i32 0, i32 9
  %24 = load i64, ptr %23, align 8, !tbaa !32
  %25 = load ptr, ptr %5, align 8, !tbaa !3
  %26 = getelementptr inbounds nuw %struct.pmix_group_tracker_t, ptr %25, i32 0, i32 14
  %27 = load ptr, ptr %26, align 8, !tbaa !37
  call void %17(i32 noundef %18, ptr noundef %21, i64 noundef %24, ptr noundef %27, ptr noundef null, ptr noundef null)
  br label %28

28:                                               ; preds = %14, %2
  call void @pmix_atomic_wmb()
  br label %29

29:                                               ; preds = %28
  %30 = load ptr, ptr %5, align 8, !tbaa !3
  %31 = getelementptr inbounds nuw %struct.pmix_group_tracker_t, ptr %30, i32 0, i32 1
  %32 = getelementptr inbounds nuw %struct.pmix_lock_t, ptr %31, i32 0, i32 1
  call void @pmix_mutex_lock(ptr noundef %32)
  %33 = load ptr, ptr %5, align 8, !tbaa !3
  %34 = getelementptr inbounds nuw %struct.pmix_group_tracker_t, ptr %33, i32 0, i32 1
  %35 = getelementptr inbounds nuw %struct.pmix_lock_t, ptr %34, i32 0, i32 3
  store volatile i8 0, ptr %35, align 8, !tbaa !18
  call void @pmix_atomic_wmb()
  %36 = load ptr, ptr %5, align 8, !tbaa !3
  %37 = getelementptr inbounds nuw %struct.pmix_group_tracker_t, ptr %36, i32 0, i32 1
  %38 = getelementptr inbounds nuw %struct.pmix_lock_t, ptr %37, i32 0, i32 2
  %39 = call i32 @pthread_cond_broadcast(ptr noundef %38) #11
  %40 = load ptr, ptr %5, align 8, !tbaa !3
  %41 = getelementptr inbounds nuw %struct.pmix_group_tracker_t, ptr %40, i32 0, i32 1
  %42 = getelementptr inbounds nuw %struct.pmix_lock_t, ptr %41, i32 0, i32 1
  call void @pmix_mutex_unlock(ptr noundef %42)
  br label %43

43:                                               ; preds = %29
  br label %44

44:                                               ; preds = %43
  call void @llvm.lifetime.end.p0(i64 8, ptr %5) #11
  ret void
}