; Function Attrs: nounwind uwtable
define internal void @op_cbfunc(i32 noundef %0, ptr noundef initializes((344, 348)) %1) #0 {
  %3 = getelementptr inbounds nuw i8, ptr %1, i64 344
  store i32 %0, ptr %3, align 8, !tbaa !28
  %4 = getelementptr inbounds nuw i8, ptr %1, i64 432
  %5 = load ptr, ptr %4, align 8, !tbaa !133
  %.not = icmp eq ptr %5, null
  br i1 %.not, label %13, label %6

6:                                                ; preds = %2
  %7 = getelementptr inbounds nuw i8, ptr %1, i64 392
  %8 = load ptr, ptr %7, align 8, !tbaa !33
  %9 = getelementptr inbounds nuw i8, ptr %1, i64 400
  %10 = load i64, ptr %9, align 8, !tbaa !34
  %11 = getelementptr inbounds nuw i8, ptr %1, i64 440
  %12 = load ptr, ptr %11, align 8, !tbaa !134
  tail call void %5(i32 noundef %0, ptr noundef %8, i64 noundef %10, ptr noundef %12, ptr noundef null, ptr noundef null) #16
  br label %13

13:                                               ; preds = %6, %2
  fence release
  %14 = getelementptr inbounds nuw i8, ptr %1, i64 248
  %15 = tail call i32 @pthread_mutex_lock(ptr noundef nonnull %14) #16
  %16 = getelementptr inbounds nuw i8, ptr %1, i64 336
  store volatile i8 0, ptr %16, align 8, !tbaa !21
  fence release
  %17 = getelementptr inbounds nuw i8, ptr %1, i64 288
  %18 = tail call i32 @pthread_cond_broadcast(ptr noundef nonnull %17) #16
  %19 = tail call i32 @pthread_mutex_unlock(ptr noundef nonnull %14) #16
  ret void
}